; Function Attrs: mustprogress nofree norecurse nosync nounwind willreturn memory(readwrite, inaccessiblemem: none) uwtable
define internal range(i32 0, 9) i32 @ctrl_get_screen_content_tools_info(ptr nocapture noundef readonly %0, ptr nocapture noundef %1) #7 {
  %3 = load i32, ptr %1, align 8
  %4 = icmp ult i32 %3, 41
  br i1 %4, label %5, label %11

5:                                                ; preds = %2
  %6 = getelementptr inbounds nuw i8, ptr %1, i64 16
  %7 = load ptr, ptr %6, align 8
  %8 = zext nneg i32 %3 to i64
  %9 = getelementptr i8, ptr %7, i64 %8
  %10 = add nuw nsw i32 %3, 8
  store i32 %10, ptr %1, align 8
  br label %15

11:                                               ; preds = %2
  %12 = getelementptr inbounds nuw i8, ptr %1, i64 8
  %13 = load ptr, ptr %12, align 8
  %14 = getelementptr i8, ptr %13, i64 8
  store ptr %14, ptr %12, align 8
  br label %15

15:                                               ; preds = %11, %5
  %16 = phi ptr [ %9, %5 ], [ %13, %11 ]
  %17 = load ptr, ptr %16, align 8
  %.not = icmp eq ptr %17, null
  br i1 %.not, label %39, label %18

18:                                               ; preds = %15
  %19 = getelementptr inbounds nuw i8, ptr %0, i64 27120
  %20 = load ptr, ptr %19, align 8
  %.not15 = icmp eq ptr %20, null
  br i1 %.not15, label %39, label %21

21:                                               ; preds = %18
  %22 = getelementptr inbounds nuw i8, ptr %20, i64 32
  %23 = load ptr, ptr %22, align 8
  %24 = load ptr, ptr %23, align 8
  %25 = getelementptr inbounds i8, ptr %24, i64 49007
  %26 = load i8, ptr %25, align 1
  %27 = and i8 %26, 1
  %28 = zext nneg i8 %27 to i32
  store i32 %28, ptr %17, align 4
  %29 = getelementptr inbounds i8, ptr %24, i64 49008
  %30 = load i8, ptr %29, align 4
  %31 = and i8 %30, 1
  %32 = zext nneg i8 %31 to i32
  %33 = getelementptr inbounds nuw i8, ptr %17, i64 4
  store i32 %32, ptr %33, align 4
  %34 = getelementptr inbounds i8, ptr %24, i64 49006
  %35 = load i8, ptr %34, align 2
  %36 = and i8 %35, 1
  %37 = zext nneg i8 %36 to i32
  %38 = getelementptr inbounds nuw i8, ptr %17, i64 8
  store i32 %37, ptr %38, align 4
  br label %39

39:                                               ; preds = %15, %18, %21
  %.0 = phi i32 [ 0, %21 ], [ 1, %18 ], [ 8, %15 ]
  ret i32 %.0
}